target datalayout = "e-m:e-p270:32:32-p271:32:32-p272:64:64-i64:64-i128:128-f80:128-n8:16:32:64-S128"
target triple = "x86_64-pc-linux-gnu"

%struct.luaL_Strbuf = type { ptr, ptr, ptr, ptr, [512 x i8] }

@.str.43 = private unnamed_addr constant [1 x i8] zeroinitializer, align 1
@.str.44 = private unnamed_addr constant [27 x i8] c"resulting string too large\00", align 1

; Function Attrs: mustprogress uwtable
define internal noundef i32 @_ZL7str_repP9lua_State(ptr noundef %0) #2 {
  %2 = alloca i32, align 4
  %3 = alloca ptr, align 8
  %4 = alloca i64, align 8
  %5 = alloca ptr, align 8
  %6 = alloca i32, align 4
  %7 = alloca i32, align 4
  %8 = alloca %struct.luaL_Strbuf, align 8
  %9 = alloca ptr, align 8
  %10 = alloca ptr, align 8
  %11 = alloca i64, align 8
  %12 = alloca i64, align 8
  store ptr %0, ptr %3, align 8, !tbaa !20
  call void @llvm.lifetime.start.p0(i64 8, ptr %4) #13
  call void @llvm.lifetime.start.p0(i64 8, ptr %5) #13
  %13 = load ptr, ptr %3, align 8, !tbaa !20
  %14 = call noundef ptr @_Z17luaL_checklstringP9lua_StateiPm(ptr noundef %13, i32 noundef 1, ptr noundef %4)
  store ptr %14, ptr %5, align 8, !tbaa !9
  call void @llvm.lifetime.start.p0(i64 4, ptr %6) #13
  %15 = load ptr, ptr %3, align 8, !tbaa !20
  %16 = call noundef i32 @_Z17luaL_checkintegerP9lua_Statei(ptr noundef %15, i32 noundef 2)
  store i32 %16, ptr %6, align 4, !tbaa !24
  %17 = load i32, ptr %6, align 4, !tbaa !24
  %18 = icmp sle i32 %17, 0
  br i1 %18, label %19, label %21

19:                                               ; preds = %1
  %20 = load ptr, ptr %3, align 8, !tbaa !20
  call void @_Z15lua_pushlstringP9lua_StatePKcm(ptr noundef %20, ptr noundef @.str.43, i64 noundef 0)
  store i32 1, ptr %2, align 4
  store i32 1, ptr %7, align 4
  br label %78

21:                                               ; preds = %1
  %22 = load i64, ptr %4, align 8, !tbaa !22
  %23 = load i32, ptr %6, align 4, !tbaa !24
  %24 = sext i32 %23 to i64
  %25 = udiv i64 1073741824, %24
  %26 = icmp ugt i64 %22, %25
  br i1 %26, label %27, label %29

27:                                               ; preds = %21
  %28 = load ptr, ptr %3, align 8, !tbaa !20
  call void (ptr, ptr, ...) @_Z11luaL_errorLP9lua_StatePKcz(ptr noundef %28, ptr noundef @.str.44) #14
  unreachable

29:                                               ; preds = %21
  call void @llvm.lifetime.start.p0(i64 544, ptr %8) #13
  call void @llvm.lifetime.start.p0(i64 8, ptr %9) #13
  %30 = load ptr, ptr %3, align 8, !tbaa !20
  %31 = load i64, ptr %4, align 8, !tbaa !22
  %32 = load i32, ptr %6, align 4, !tbaa !24
  %33 = sext i32 %32 to i64
  %34 = mul i64 %31, %33
  %35 = call noundef ptr @_Z17luaL_buffinitsizeP9lua_StateP11luaL_Strbufm(ptr noundef %30, ptr noundef %8, i64 noundef %34)
  store ptr %35, ptr %9, align 8, !tbaa !9
  call void @llvm.lifetime.start.p0(i64 8, ptr %10) #13
  %36 = load ptr, ptr %9, align 8, !tbaa !9
  store ptr %36, ptr %10, align 8, !tbaa !9
  call void @llvm.lifetime.start.p0(i64 8, ptr %11) #13
  %37 = load i64, ptr %4, align 8, !tbaa !22
  %38 = load i32, ptr %6, align 4, !tbaa !24
  %39 = sext i32 %38 to i64
  %40 = mul i64 %37, %39
  store i64 %40, ptr %11, align 8, !tbaa !22
  call void @llvm.lifetime.start.p0(i64 8, ptr %12) #13
  %41 = load i64, ptr %4, align 8, !tbaa !22
  store i64 %41, ptr %12, align 8, !tbaa !22
  %42 = load ptr, ptr %9, align 8, !tbaa !9
  %43 = load ptr, ptr %5, align 8, !tbaa !9
  %44 = load i64, ptr %4, align 8, !tbaa !22
  call void @llvm.memcpy.p0.p0.i64(ptr align 1 %42, ptr align 1 %43, i64 %44, i1 false)
  %45 = load i64, ptr %4, align 8, !tbaa !22
  %46 = load ptr, ptr %9, align 8, !tbaa !9
  %47 = getelementptr inbounds nuw i8, ptr %46, i64 %45
  store ptr %47, ptr %9, align 8, !tbaa !9
  %48 = load i64, ptr %4, align 8, !tbaa !22
  %49 = load i64, ptr %11, align 8, !tbaa !22
  %50 = sub i64 %49, %48
  store i64 %50, ptr %11, align 8, !tbaa !22
  br label %51

51:                                               ; preds = %55, %29
  %52 = load i64, ptr %12, align 8, !tbaa !22
  %53 = load i64, ptr %11, align 8, !tbaa !22
  %54 = icmp ult i64 %52, %53
  br i1 %54, label %55, label %67

55:                                               ; preds = %51
  %56 = load ptr, ptr %9, align 8, !tbaa !9
  %57 = load ptr, ptr %10, align 8, !tbaa !9
  %58 = load i64, ptr %12, align 8, !tbaa !22
  call void @llvm.memcpy.p0.p0.i64(ptr align 1 %56, ptr align 1 %57, i64 %58, i1 false)
  %59 = load i64, ptr %12, align 8, !tbaa !22
  %60 = load ptr, ptr %9, align 8, !tbaa !9
  %61 = getelementptr inbounds nuw i8, ptr %60, i64 %59
  store ptr %61, ptr %9, align 8, !tbaa !9
  %62 = load i64, ptr %12, align 8, !tbaa !22
  %63 = load i64, ptr %11, align 8, !tbaa !22
  %64 = sub i64 %63, %62
  store i64 %64, ptr %11, align 8, !tbaa !22
  %65 = load i64, ptr %12, align 8, !tbaa !22
  %66 = shl i64 %65, 1
  store i64 %66, ptr %12, align 8, !tbaa !22
  br label %51, !llvm.loop !43

67:                                               ; preds = %51
  %68 = load ptr, ptr %9, align 8, !tbaa !9
  %69 = load ptr, ptr %10, align 8, !tbaa !9
  %70 = load i64, ptr %11, align 8, !tbaa !22
  call void @llvm.memcpy.p0.p0.i64(ptr align 1 %68, ptr align 1 %69, i64 %70, i1 false)
  %71 = load i64, ptr %11, align 8, !tbaa !22
  %72 = load ptr, ptr %9, align 8, !tbaa !9
  %73 = getelementptr inbounds nuw i8, ptr %72, i64 %71
  store ptr %73, ptr %9, align 8, !tbaa !9
  %74 = load i64, ptr %4, align 8, !tbaa !22
  %75 = load i32, ptr %6, align 4, !tbaa !24
  %76 = sext i32 %75 to i64
  %77 = mul i64 %74, %76
  call void @_Z19luaL_pushresultsizeP11luaL_Strbufm(ptr noundef %8, i64 noundef %77)
  store i32 1, ptr %2, align 4
  store i32 1, ptr %7, align 4
  call void @llvm.lifetime.end.p0(i64 8, ptr %12) #13
  call void @llvm.lifetime.end.p0(i64 8, ptr %11) #13
  call void @llvm.lifetime.end.p0(i64 8, ptr %10) #13
  call void @llvm.lifetime.end.p0(i64 8, ptr %9) #13
  call void @llvm.lifetime.end.p0(i64 544, ptr %8) #13
  br label %78

78:                                               ; preds = %67, %19
  call void @llvm.lifetime.end.p0(i64 4, ptr %6) #13
  call void @llvm.lifetime.end.p0(i64 8, ptr %5) #13
  call void @llvm.lifetime.end.p0(i64 8, ptr %4) #13
  %79 = load i32, ptr %2, align 4
  ret i32 %79
}