; Function Attrs: mustprogress uwtable
define internal noundef i32 @_ZL7str_repP9lua_State(ptr noundef %0) #0 {
  %2 = alloca i64, align 8
  %3 = alloca %struct.luaL_Strbuf, align 8
  call void @llvm.lifetime.start.p0(i64 8, ptr nonnull %2) #14
  %4 = call noundef ptr @_Z17luaL_checklstringP9lua_StateiPm(ptr noundef %0, i32 noundef 1, ptr noundef nonnull %2)
  %5 = call noundef i32 @_Z17luaL_checkintegerP9lua_Statei(ptr noundef %0, i32 noundef 2)
  %6 = icmp slt i32 %5, 1
  br i1 %6, label %7, label %8

7:                                                ; preds = %1
  call void @_Z15lua_pushlstringP9lua_StatePKcm(ptr noundef %0, ptr noundef nonnull @.str.43, i64 noundef 0)
  br label %29

8:                                                ; preds = %1
  %9 = load i64, ptr %2, align 8, !tbaa !4
  %10 = zext nneg i32 %5 to i64
  %11 = udiv i32 1073741824, %5
  %.zext = zext nneg i32 %11 to i64
  %12 = icmp ugt i64 %9, %.zext
  br i1 %12, label %13, label %14

13:                                               ; preds = %8
  call void (ptr, ptr, ...) @_Z11luaL_errorLP9lua_StatePKcz(ptr noundef %0, ptr noundef nonnull @.str.44) #15
  unreachable

14:                                               ; preds = %8
  call void @llvm.lifetime.start.p0(i64 544, ptr nonnull %3) #14
  %15 = mul nuw nsw i64 %9, %10
  %16 = call noundef ptr @_Z17luaL_buffinitsizeP9lua_StateP11luaL_Strbufm(ptr noundef %0, ptr noundef nonnull %3, i64 noundef %15)
  %17 = load i64, ptr %2, align 8, !tbaa !4
  %18 = mul i64 %17, %10
  call void @llvm.memcpy.p0.p0.i64(ptr align 1 %16, ptr align 1 %4, i64 %17, i1 false)
  %19 = load i64, ptr %2, align 8, !tbaa !4
  %20 = getelementptr inbounds nuw i8, ptr %16, i64 %19
  %21 = sub i64 %18, %19
  %22 = icmp ult i64 %17, %21
  br i1 %22, label %.lr.ph, label %._crit_edge

.lr.ph:                                           ; preds = %14, %.lr.ph
  %.036 = phi i64 [ %25, %.lr.ph ], [ %17, %14 ]
  %.03035 = phi i64 [ %24, %.lr.ph ], [ %21, %14 ]
  %.03234 = phi ptr [ %23, %.lr.ph ], [ %20, %14 ]
  call void @llvm.memcpy.p0.p0.i64(ptr align 1 %.03234, ptr align 1 %16, i64 %.036, i1 false)
  %23 = getelementptr inbounds nuw i8, ptr %.03234, i64 %.036
  %24 = sub nuw i64 %.03035, %.036
  %25 = shl i64 %.036, 1
  %26 = icmp ult i64 %25, %24
  br i1 %26, label %.lr.ph, label %._crit_edge, !llvm.loop !45

._crit_edge:                                      ; preds = %.lr.ph, %14
  %.032.lcssa = phi ptr [ %20, %14 ], [ %23, %.lr.ph ]
  %.030.lcssa = phi i64 [ %21, %14 ], [ %24, %.lr.ph ]
  call void @llvm.memcpy.p0.p0.i64(ptr align 1 %.032.lcssa, ptr align 1 %16, i64 %.030.lcssa, i1 false)
  %27 = load i64, ptr %2, align 8, !tbaa !4
  %28 = mul i64 %27, %10
  call void @_Z19luaL_pushresultsizeP11luaL_Strbufm(ptr noundef nonnull %3, i64 noundef %28)
  call void @llvm.lifetime.end.p0(i64 544, ptr nonnull %3) #14
  br label %29

29:                                               ; preds = %._crit_edge, %7
  call void @llvm.lifetime.end.p0(i64 8, ptr nonnull %2) #14
  ret i32 1
}